target datalayout = "e-m:e-p270:32:32-p271:32:32-p272:64:64-i64:64-i128:128-f80:128-n8:16:32:64-S128"
target triple = "x86_64-pc-linux-gnu"

%struct.AVFilterContext = type { ptr, ptr, ptr, ptr, ptr, i32, ptr, ptr, i32, ptr, ptr, i32, i32, ptr, ptr, ptr, ptr, i32, ptr, i32, i32 }
%struct.AudioRNNContext = type { ptr, ptr, float, i32, ptr, [960 x float], [24 x [24 x float]], [2 x ptr], ptr, [8 x i8] }
%struct.DenoiseState = type { [480 x float], [8 x [22 x float]], i32, [12 x i8], [480 x float], [1728 x float], [1728 x float], float, i32, [2 x float], [22 x float], [480 x float], [2 x %struct.RNNState], ptr, ptr, ptr, ptr, [8 x i8] }
%struct.RNNState = type { ptr, ptr, ptr, ptr }

; Function Attrs: nounwind uwtable
define internal void @free_model(ptr noundef %0, i32 noundef %1) #1 {
  %3 = alloca ptr, align 8
  %4 = alloca i32, align 4
  %5 = alloca ptr, align 8
  %6 = alloca i32, align 4
  store ptr %0, ptr %3, align 8, !tbaa !4
  store i32 %1, ptr %4, align 4, !tbaa !29
  call void @llvm.lifetime.start.p0(i64 8, ptr %5) #11
  %7 = load ptr, ptr %3, align 8, !tbaa !4
  %8 = getelementptr inbounds nuw %struct.AVFilterContext, ptr %7, i32 0, i32 9
  %9 = load ptr, ptr %8, align 8, !tbaa !9
  store ptr %9, ptr %5, align 8, !tbaa !22
  %10 = load ptr, ptr %5, align 8, !tbaa !22
  %11 = getelementptr inbounds nuw %struct.AudioRNNContext, ptr %10, i32 0, i32 7
  %12 = load i32, ptr %4, align 4, !tbaa !29
  %13 = sext i32 %12 to i64
  %14 = getelementptr inbounds [2 x ptr], ptr %11, i64 0, i64 %13
  %15 = load ptr, ptr %14, align 8, !tbaa !41
  call void @rnnoise_model_free(ptr noundef %15)
  %16 = load ptr, ptr %5, align 8, !tbaa !22
  %17 = getelementptr inbounds nuw %struct.AudioRNNContext, ptr %16, i32 0, i32 7
  %18 = load i32, ptr %4, align 4, !tbaa !29
  %19 = sext i32 %18 to i64
  %20 = getelementptr inbounds [2 x ptr], ptr %17, i64 0, i64 %19
  store ptr null, ptr %20, align 8, !tbaa !41
  call void @llvm.lifetime.start.p0(i64 4, ptr %6) #11
  store i32 0, ptr %6, align 4, !tbaa !29
  br label %21

21:                                               ; preds = %69, %2
  %22 = load i32, ptr %6, align 4, !tbaa !29
  %23 = load ptr, ptr %5, align 8, !tbaa !22
  %24 = getelementptr inbounds nuw %struct.AudioRNNContext, ptr %23, i32 0, i32 3
  %25 = load i32, ptr %24, align 4, !tbaa !35
  %26 = icmp slt i32 %22, %25
  br i1 %26, label %27, label %32

27:                                               ; preds = %21
  %28 = load ptr, ptr %5, align 8, !tbaa !22
  %29 = getelementptr inbounds nuw %struct.AudioRNNContext, ptr %28, i32 0, i32 4
  %30 = load ptr, ptr %29, align 8, !tbaa !36
  %31 = icmp ne ptr %30, null
  br label %32

32:                                               ; preds = %27, %21
  %33 = phi i1 [ false, %21 ], [ %31, %27 ]
  br i1 %33, label %35, label %34

34:                                               ; preds = %32
  call void @llvm.lifetime.end.p0(i64 4, ptr %6) #11
  br label %72

35:                                               ; preds = %32
  %36 = load ptr, ptr %5, align 8, !tbaa !22
  %37 = getelementptr inbounds nuw %struct.AudioRNNContext, ptr %36, i32 0, i32 4
  %38 = load ptr, ptr %37, align 8, !tbaa !36
  %39 = load i32, ptr %6, align 4, !tbaa !29
  %40 = sext i32 %39 to i64
  %41 = getelementptr inbounds %struct.DenoiseState, ptr %38, i64 %40
  %42 = getelementptr inbounds nuw %struct.DenoiseState, ptr %41, i32 0, i32 12
  %43 = load i32, ptr %4, align 4, !tbaa !29
  %44 = sext i32 %43 to i64
  %45 = getelementptr inbounds [2 x %struct.RNNState], ptr %42, i64 0, i64 %44
  %46 = getelementptr inbounds nuw %struct.RNNState, ptr %45, i32 0, i32 0
  call void @av_freep(ptr noundef %46)
  %47 = load ptr, ptr %5, align 8, !tbaa !22
  %48 = getelementptr inbounds nuw %struct.AudioRNNContext, ptr %47, i32 0, i32 4
  %49 = load ptr, ptr %48, align 8, !tbaa !36
  %50 = load i32, ptr %6, align 4, !tbaa !29
  %51 = sext i32 %50 to i64
  %52 = getelementptr inbounds %struct.DenoiseState, ptr %49, i64 %51
  %53 = getelementptr inbounds nuw %struct.DenoiseState, ptr %52, i32 0, i32 12
  %54 = load i32, ptr %4, align 4, !tbaa !29
  %55 = sext i32 %54 to i64
  %56 = getelementptr inbounds [2 x %struct.RNNState], ptr %53, i64 0, i64 %55
  %57 = getelementptr inbounds nuw %struct.RNNState, ptr %56, i32 0, i32 1
  call void @av_freep(ptr noundef %57)
  %58 = load ptr, ptr %5, align 8, !tbaa !22
  %59 = getelementptr inbounds nuw %struct.AudioRNNContext, ptr %58, i32 0, i32 4
  %60 = load ptr, ptr %59, align 8, !tbaa !36
  %61 = load i32, ptr %6, align 4, !tbaa !29
  %62 = sext i32 %61 to i64
  %63 = getelementptr inbounds %struct.DenoiseState, ptr %60, i64 %62
  %64 = getelementptr inbounds nuw %struct.DenoiseState, ptr %63, i32 0, i32 12
  %65 = load i32, ptr %4, align 4, !tbaa !29
  %66 = sext i32 %65 to i64
  %67 = getelementptr inbounds [2 x %struct.RNNState], ptr %64, i64 0, i64 %66
  %68 = getelementptr inbounds nuw %struct.RNNState, ptr %67, i32 0, i32 2
  call void @av_freep(ptr noundef %68)
  br label %69

69:                                               ; preds = %35
  %70 = load i32, ptr %6, align 4, !tbaa !29
  %71 = add nsw i32 %70, 1
  store i32 %71, ptr %6, align 4, !tbaa !29
  br label %21, !llvm.loop !160

72:                                               ; preds = %34
  call void @llvm.lifetime.end.p0(i64 8, ptr %5) #11
  ret void
}

; Function Attrs: cold nounwind optsize uwtable
define internal void @uninit(ptr noundef %0) #0 {
  %2 = alloca ptr, align 8
  %3 = alloca ptr, align 8
  %4 = alloca i32, align 4
  store ptr %0, ptr %2, align 8, !tbaa !4
  call void @llvm.lifetime.start.p0(i64 8, ptr %3) #11
  %5 = load ptr, ptr %2, align 8, !tbaa !4
  %6 = getelementptr inbounds nuw %struct.AVFilterContext, ptr %5, i32 0, i32 9
  %7 = load ptr, ptr %6, align 8, !tbaa !9
  store ptr %7, ptr %3, align 8, !tbaa !22
  %8 = load ptr, ptr %3, align 8, !tbaa !22
  %9 = getelementptr inbounds nuw %struct.AudioRNNContext, ptr %8, i32 0, i32 8
  call void @av_freep(ptr noundef %9)
  %10 = load ptr, ptr %2, align 8, !tbaa !4
  call void @free_model(ptr noundef %10, i32 noundef 0)
  call void @llvm.lifetime.start.p0(i64 4, ptr %4) #11
  store i32 0, ptr %4, align 4, !tbaa !29
  br label %11

11:                                               ; preds = %40, %1
  %12 = load i32, ptr %4, align 4, !tbaa !29
  %13 = load ptr, ptr %3, align 8, !tbaa !22
  %14 = getelementptr inbounds nuw %struct.AudioRNNContext, ptr %13, i32 0, i32 3
  %15 = load i32, ptr %14, align 4, !tbaa !35
  %16 = icmp slt i32 %12, %15
  br i1 %16, label %17, label %22

17:                                               ; preds = %11
  %18 = load ptr, ptr %3, align 8, !tbaa !22
  %19 = getelementptr inbounds nuw %struct.AudioRNNContext, ptr %18, i32 0, i32 4
  %20 = load ptr, ptr %19, align 8, !tbaa !36
  %21 = icmp ne ptr %20, null
  br label %22

22:                                               ; preds = %17, %11
  %23 = phi i1 [ false, %11 ], [ %21, %17 ]
  br i1 %23, label %25, label %24

24:                                               ; preds = %22
  call void @llvm.lifetime.end.p0(i64 4, ptr %4) #11
  br label %43

25:                                               ; preds = %22
  %26 = load ptr, ptr %3, align 8, !tbaa !22
  %27 = getelementptr inbounds nuw %struct.AudioRNNContext, ptr %26, i32 0, i32 4
  %28 = load ptr, ptr %27, align 8, !tbaa !36
  %29 = load i32, ptr %4, align 4, !tbaa !29
  %30 = sext i32 %29 to i64
  %31 = getelementptr inbounds %struct.DenoiseState, ptr %28, i64 %30
  %32 = getelementptr inbounds nuw %struct.DenoiseState, ptr %31, i32 0, i32 13
  call void @av_tx_uninit(ptr noundef %32)
  %33 = load ptr, ptr %3, align 8, !tbaa !22
  %34 = getelementptr inbounds nuw %struct.AudioRNNContext, ptr %33, i32 0, i32 4
  %35 = load ptr, ptr %34, align 8, !tbaa !36
  %36 = load i32, ptr %4, align 4, !tbaa !29
  %37 = sext i32 %36 to i64
  %38 = getelementptr inbounds %struct.DenoiseState, ptr %35, i64 %37
  %39 = getelementptr inbounds nuw %struct.DenoiseState, ptr %38, i32 0, i32 14
  call void @av_tx_uninit(ptr noundef %39)
  br label %40

40:                                               ; preds = %25
  %41 = load i32, ptr %4, align 4, !tbaa !29
  %42 = add nsw i32 %41, 1
  store i32 %42, ptr %4, align 4, !tbaa !29
  br label %11, !llvm.loop !37

43:                                               ; preds = %24
  %44 = load ptr, ptr %3, align 8, !tbaa !22
  %45 = getelementptr inbounds nuw %struct.AudioRNNContext, ptr %44, i32 0, i32 4
  call void @av_freep(ptr noundef %45)
  call void @llvm.lifetime.end.p0(i64 8, ptr %3) #11
  ret void
}