; Function Attrs: cold nounwind optsize uwtable
define internal void @uninit(ptr noundef readonly captures(none) %0) #0 {
  %2 = getelementptr inbounds nuw i8, ptr %0, i64 72
  %3 = load ptr, ptr %2, align 8, !tbaa !4
  %4 = getelementptr inbounds nuw i8, ptr %3, i64 6192
  tail call void @av_freep(ptr noundef nonnull %4) #11
  %.val = load ptr, ptr %2, align 8, !tbaa !4
  %5 = getelementptr inbounds nuw i8, ptr %.val, i64 6176
  %6 = load ptr, ptr %5, align 8, !tbaa !30
  tail call fastcc void @rnnoise_model_free(ptr noundef %6)
  store ptr null, ptr %5, align 8, !tbaa !30
  %7 = getelementptr inbounds nuw i8, ptr %.val, i64 24
  %8 = getelementptr inbounds nuw i8, ptr %.val, i64 20
  %9 = load i32, ptr %8, align 4, !tbaa !32
  %10 = icmp sgt i32 %9, 0
  br i1 %10, label %.lr.ph.i, label %free_model.exit

.lr.ph.i:                                         ; preds = %1, %12
  %indvars.iv.i = phi i64 [ %indvars.iv.next.i, %12 ], [ 0, %1 ]
  %11 = load ptr, ptr %7, align 8, !tbaa !33
  %.not.i = icmp eq ptr %11, null
  br i1 %.not.i, label %free_model.exit, label %12

12:                                               ; preds = %.lr.ph.i
  %13 = getelementptr inbounds nuw %struct.DenoiseState, ptr %11, i64 %indvars.iv.i, i32 12, i64 0
  tail call void @av_freep(ptr noundef nonnull %13) #11
  %14 = load ptr, ptr %7, align 8, !tbaa !33
  %15 = getelementptr inbounds nuw %struct.DenoiseState, ptr %14, i64 %indvars.iv.i, i32 12, i64 0, i32 1
  tail call void @av_freep(ptr noundef nonnull %15) #11
  %16 = load ptr, ptr %7, align 8, !tbaa !33
  %17 = getelementptr inbounds nuw %struct.DenoiseState, ptr %16, i64 %indvars.iv.i, i32 12, i64 0, i32 2
  tail call void @av_freep(ptr noundef nonnull %17) #11
  %indvars.iv.next.i = add nuw nsw i64 %indvars.iv.i, 1
  %18 = load i32, ptr %8, align 4, !tbaa !32
  %19 = sext i32 %18 to i64
  %20 = icmp slt i64 %indvars.iv.next.i, %19
  br i1 %20, label %.lr.ph.i, label %free_model.exit, !llvm.loop !34

free_model.exit:                                  ; preds = %.lr.ph.i, %12, %1
  %21 = getelementptr inbounds nuw i8, ptr %3, i64 24
  %22 = getelementptr inbounds nuw i8, ptr %3, i64 20
  %23 = load i32, ptr %22, align 4, !tbaa !32
  %24 = icmp sgt i32 %23, 0
  br i1 %24, label %.lr.ph, label %.critedge

.lr.ph:                                           ; preds = %free_model.exit, %26
  %indvars.iv = phi i64 [ %indvars.iv.next, %26 ], [ 0, %free_model.exit ]
  %25 = load ptr, ptr %21, align 8, !tbaa !33
  %.not = icmp eq ptr %25, null
  br i1 %.not, label %.critedge, label %26

.critedge:                                        ; preds = %.lr.ph, %26, %free_model.exit
  tail call void @av_freep(ptr noundef nonnull %21) #11
  ret void

26:                                               ; preds = %.lr.ph
  %27 = getelementptr inbounds nuw %struct.DenoiseState, ptr %25, i64 %indvars.iv, i32 13
  tail call void @av_tx_uninit(ptr noundef nonnull %27) #11
  %28 = load ptr, ptr %21, align 8, !tbaa !33
  %29 = getelementptr inbounds nuw %struct.DenoiseState, ptr %28, i64 %indvars.iv, i32 14
  tail call void @av_tx_uninit(ptr noundef nonnull %29) #11
  %indvars.iv.next = add nuw nsw i64 %indvars.iv, 1
  %30 = load i32, ptr %22, align 4, !tbaa !32
  %31 = sext i32 %30 to i64
  %32 = icmp slt i64 %indvars.iv.next, %31
  br i1 %32, label %.lr.ph, label %.critedge, !llvm.loop !35
}